Certificate:
    Data:
        Version: 3 (0x2)
        Serial Number:
            f6:23:21:8c:6e:70:0c:c0
        Signature Algorithm: sha1WithRSAEncryption
        Issuer: C=US, ST=California, O=Western Digital Corporation, OU=Branded Products Group, CN=My Net router/emailAddress=webmaster@wdc.com
        Validity
            Not Before: Feb 24 09:20:13 2012 GMT
            Not After : Feb 21 09:20:13 2022 GMT
        Subject: C=US, ST=California, L=Irvine, O=Western Digital Corporation, OU=Branded Products Group, CN=My Net router/emailAddress=webmaster@wdc.com
        Subject Public Key Info:
            Public Key Algorithm: rsaEncryption
                Public-Key: (2048 bit)
                Modulus:
                    00:af:84:bb:1f:7c:9c:8d:47:b9:50:39:0e:93:fa:
                    1e:56:3e:73:7f:0c:3d:d6:f8:77:30:5b:23:d5:fe:
                    76:50:9f:42:47:85:91:11:e9:5f:ca:56:88:4c:b2:
                    84:b2:bd:21:ef:77:39:cf:7b:43:c3:1b:cf:7d:01:
                    35:57:6e:e2:60:38:f9:43:88:03:31:9d:d5:7e:58:
                    6f:0d:ef:14:89:d2:9d:38:00:c8:8a:55:3c:36:53:
                    ad:70:13:e2:8a:66:b1:17:d2:c7:36:10:9c:1d:d1:
                    f3:a2:87:32:25:21:69:88:e3:79:50:e5:b8:30:05:
                    4a:2f:e5:0b:bc:8d:75:91:c9:46:f2:bd:a7:29:64:
                    fd:77:0a:36:90:82:50:80:b1:bc:f1:f5:de:5d:b6:
                    20:5e:98:4b:0b:18:a1:87:7b:22:b4:63:59:03:ea:
                    90:56:33:0e:60:43:03:a4:dd:02:ed:bb:25:9c:e6:
                    6a:d5:b3:3f:47:bf:d4:78:2d:98:f1:fa:1c:f6:5f:
                    c4:e3:bb:de:8e:15:82:b8:a5:06:14:88:16:f7:a7:
                    db:24:35:48:88:af:ec:19:af:2e:4a:9d:0e:5d:be:
                    27:c0:fb:29:d9:5f:13:d0:56:cc:1a:40:8e:33:59:
                    1b:f5:19:4e:5d:08:e4:e0:58:cf:ee:ba:24:c1:36:
                    42:75
                Exponent: 65537 (0x10001)
        X509v3 extensions:
            X509v3 Basic Constraints: 
                CA:FALSE
            Netscape Comment: 
                OpenSSL Generated Certificate
            X509v3 Subject Key Identifier: 
                82:27:FC:4D:44:B0:78:24:99:95:18:B8:3B:7E:7D:44:3C:F7:E4:DE
            X509v3 Authority Key Identifier: 
                keyid:0F:89:B1:38:3D:CF:5C:91:BF:A0:DC:81:DA:16:07:54:9C:82:A9:E7

    Signature Algorithm: sha1WithRSAEncryption
        27:9c:5b:b8:3f:00:c5:35:5b:20:6a:ba:bf:52:8d:6e:74:23:
        3d:9d:38:4e:f1:5a:07:1d:b2:2a:50:96:b7:14:56:e9:e4:47:
        d2:b2:44:5b:fb:c9:d1:b9:19:21:67:3a:0a:3e:c6:01:68:38:
        4e:39:81:01:f5:d2:77:66:f8:64:3c:0e:6e:f9:bf:12:50:01:
        f7:ed:ea:ac:3a:d4:d3:d9:63:38:33:ef:a3:43:7c:c9:db:6f:
        36:1e:58:ff:15:3f:3a:c6:dc:15:d3:cb:40:83:e3:cc:a9:10:
        58:65:7f:f2:48:68:40:54:42:e7:73:f8:e4:97:7a:33:7b:55:
        29:ee:09:2e:8e:87:be:3a:d6:a4:cf:2b:78:a4:c1:73:e1:c2:
        1a:ef:43:48:fc:0f:9d:47:d0:68:e1:1b:c4:d9:d0:48:a2:fb:
        cc:48:23:19:61:39:43:da:95:f2:f3:24:fe:7d:f0:0a:d6:86:
        fa:93:10:51:e7:40:08:2d:17:76:12:aa:ec:73:cf:81:0f:5a:
        07:59:18:05:89:c6:18:4e:59:ba:a6:76:96:eb:12:0e:1f:93:
        0b:a4:d9:ab:19:5a:92:fc:0d:be:7f:86:96:46:92:3a:11:90:
        a2:94:d6:f3:05:78:82:30:b2:ff:ed:01:2d:bc:e4:68:38:67:
        ac:01:ba:f7
-----BEGIN CERTIFICATE-----
MIIEVzCCAz+gAwIBAgIJAPYjIYxucAzAMA0GCSqGSIb3DQEBBQUAMIGjMQswCQYD
VQQGEwJVUzETMBEGA1UECAwKQ2FsaWZvcm5pYTEkMCIGA1UECgwbV2VzdGVybiBE
aWdpdGFsIENvcnBvcmF0aW9uMR8wHQYDVQQLDBZCcmFuZGVkIFByb2R1Y3RzIEdy
b3VwMRYwFAYDVQQDDA1NeSBOZXQgcm91dGVyMSAwHgYJKoZIhvcNAQkBFhF3ZWJt
YXN0ZXJAd2RjLmNvbTAeFw0xMjAyMjQwOTIwMTNaFw0yMjAyMjEwOTIwMTNaMIG0
MQswCQYDVQQGEwJVUzETMBEGA1UECAwKQ2FsaWZvcm5pYTEPMA0GA1UEBwwGSXJ2
aW5lMSQwIgYDVQQKDBtXZXN0ZXJuIERpZ2l0YWwgQ29ycG9yYXRpb24xHzAdBgNV
BAsMFkJyYW5kZWQgUHJvZHVjdHMgR3JvdXAxFjAUBgNVBAMMDU15IE5ldCByb3V0
ZXIxIDAeBgkqhkiG9w0BCQEWEXdlYm1hc3RlckB3ZGMuY29tMIIBIjANBgkqhkiG
9w0BAQEFAAOCAQ8AMIIBCgKCAQEAr4S7H3ycjUe5UDkOk/oeVj5zfww91vh3MFsj
1f52UJ9CR4WREelfylaITLKEsr0h73c5z3tDwxvPfQE1V27iYDj5Q4gDMZ3Vflhv
De8UidKdOADIilU8NlOtcBPiimaxF9LHNhCcHdHzoocyJSFpiON5UOW4MAVKL+UL
vI11kclG8r2nKWT9dwo2kIJQgLG88fXeXbYgXphLCxihh3sitGNZA+qQVjMOYEMD
pN0C7bslnOZq1bM/R7/UeC2Y8foc9l/E47vejhWCuKUGFIgW96fbJDVIiK/sGa8u
Sp0OXb4nwPsp2V8T0FbMGkCOM1kb9RlOXQjk4FjP7rokwTZCdQIDAQABo3sweTAJ
BgNVHRMEAjAAMCwGCWCGSAGG+EIBDQQfFh1PcGVuU1NMIEdlbmVyYXRlZCBDZXJ0
aWZpY2F0ZTAdBgNVHQ4EFgQUgif8TUSweCSZlRi4O359RDz35N4wHwYDVR0jBBgw
FoAUD4mxOD3PXJG/oNyB2hYHVJyCqecwDQYJKoZIhvcNAQEFBQADggEBACecW7g/
AMU1WyBqur9SjW50Iz2dOE7xWgcdsipQlrcUVunkR9KyRFv7ydG5GSFnOgo+xgFo
OE45gQH10ndm+GQ8Dm75vxJQAfft6qw61NPZYzgz76NDfMnbbzYeWP8VPzrG3BXT
y0CD48ypEFhlf/JIaEBUQudz+OSXejN7VSnuCS6Oh7461qTPK3ikwXPhwhrvQ0j8
D51H0GjhG8TZ0Eii+8xIIxlhOUPalfLzJP598ArWhvqTEFHnQAgtF3YSquxzz4EP
WgdZGAWJxhhOWbqmdpbrEg4fkwuk2asZWpL8Db5/hpZGkjoRkKKU1vMFeIIwsv/t
AS285Gg4Z6wBuvc=
-----END CERTIFICATE-----
